; Function Attrs: null_pointer_is_valid sspstrong uwtable
define internal fastcc void @dissect_tk_array_params(ptr noundef %0, ptr noundef %1, ptr noundef %2, ptr noundef captures(none) %3, i1 noundef zeroext %4, i32 noundef %5, ptr noundef readonly captures(none) %6, ptr noundef %7) unnamed_addr #0 {
  %9 = alloca i32, align 4
  %10 = alloca i8, align 1
  call void @llvm.lifetime.start.p0(i64 4, ptr nonnull %9) #17
  call void @llvm.lifetime.start.p0(i64 1, ptr nonnull %10) #17
  %11 = getelementptr inbounds nuw i8, ptr %1, i64 408
  %12 = load ptr, ptr %11, align 8
  %13 = tail call noalias dereferenceable_or_null(4) ptr @wmem_alloc(ptr noundef %12, i64 noundef 4) #18
  %14 = call i32 @get_CDR_encap_info(ptr noundef %0, ptr noundef %2, ptr noundef %3, i1 noundef zeroext %4, i32 noundef %5, ptr noundef nonnull %10, ptr noundef nonnull %9)
  %15 = load ptr, ptr %11, align 8
  %16 = tail call noalias dereferenceable_or_null(4) ptr @wmem_alloc(ptr noundef %15, i64 noundef 4) #18
  %17 = load ptr, ptr %11, align 8
  %18 = tail call noalias ptr @wmem_list_new(ptr noundef %17)
  %19 = load i8, ptr %10, align 1, !range !29, !noundef !30
  %20 = trunc nuw i8 %19 to i1
  %21 = load i32, ptr %9, align 4
  %22 = tail call fastcc i32 @get_CDR_typeCode_with_params(ptr noundef %0, ptr noundef %1, ptr noundef %2, ptr noundef %3, i1 noundef zeroext %20, i32 noundef %21, ptr noundef %6, ptr noundef %18)
  store i32 %22, ptr %16, align 4
  %.promoted.i = load i32, ptr %3, align 4
  %23 = add i32 %.promoted.i, %5
  %24 = and i32 %23, 3
  %.not9.i = icmp eq i32 %24, 0
  br i1 %.not9.i, label %26, label %.lr.ph.preheader.i

.lr.ph.preheader.i:                               ; preds = %8
  %25 = or i32 %23, -4
  %sub = sub i32 %.promoted.i, %25
  store i32 %sub, ptr %3, align 4
  br label %26

26:                                               ; preds = %.lr.ph.preheader.i, %8
  %.lcssa.i = phi i32 [ %sub, %.lr.ph.preheader.i ], [ %.promoted.i, %8 ]
  br i1 %4, label %27, label %29

27:                                               ; preds = %26
  %28 = tail call i32 @tvb_get_ntohl(ptr noundef %0, i32 noundef %.lcssa.i)
  br label %get_CDR_ulong.exit

29:                                               ; preds = %26
  %30 = tail call i32 @tvb_get_letohl(ptr noundef %0, i32 noundef %.lcssa.i)
  br label %get_CDR_ulong.exit

get_CDR_ulong.exit:                               ; preds = %27, %29
  %31 = phi i32 [ %28, %27 ], [ %30, %29 ]
  %32 = load i32, ptr %3, align 4
  %33 = add i32 %32, 4
  store i32 %33, ptr %3, align 4
  store i32 %31, ptr %13, align 4
  %34 = load i32, ptr @hf_giop_typecode_length, align 4
  %35 = tail call ptr @proto_tree_add_uint(ptr noundef %2, i32 noundef %34, ptr noundef %0, i32 noundef %32, i32 noundef 4, i32 noundef %31)
  tail call void @wmem_list_append(ptr noundef %7, ptr noundef %16)
  tail call void @wmem_list_append(ptr noundef %7, ptr noundef %18)
  tail call void @wmem_list_append(ptr noundef %7, ptr noundef %13)
  call void @llvm.lifetime.end.p0(i64 1, ptr nonnull %10) #17
  call void @llvm.lifetime.end.p0(i64 4, ptr nonnull %9) #17
  ret void
}